; Function Attrs: mustprogress nounwind uwtable
define hidden void @_ZNK14ZPageAllocator10unmap_pageEPK5ZPage(ptr noundef nonnull align 8 dereferenceable(609) %0, ptr nocapture noundef readonly %1) local_unnamed_addr #1 align 2 {
  %3 = getelementptr inbounds i8, ptr %0, i64 232
  %4 = getelementptr inbounds i8, ptr %1, i64 16
  %5 = load i64, ptr %4, align 8
  %6 = getelementptr inbounds i8, ptr %1, i64 24
  %7 = load i64, ptr %6, align 8
  %8 = sub i64 %7, %5
  tail call void @_ZNK22ZPhysicalMemoryManager5unmapE7zoffsetm(ptr noundef nonnull align 8 dereferenceable(160) %3, i64 noundef %5, i64 noundef %8) #13
  ret void
}